target datalayout = "e-m:e-p270:32:32-p271:32:32-p272:64:64-i64:64-i128:128-f80:128-n8:16:32:64-S128"
target triple = "x86_64-pc-linux-gnu"

%"class.std::basic_istream" = type { ptr, i64, %"class.std::basic_ios" }
%"class.std::basic_ios" = type { %"class.std::ios_base", ptr, i8, i8, ptr, ptr, ptr, ptr }
%"class.std::ios_base" = type { ptr, i64, i64, i32, i32, i32, ptr, %"struct.std::ios_base::_Words", [8 x %"struct.std::ios_base::_Words"], i32, ptr, %"class.std::locale" }
%"struct.std::ios_base::_Words" = type { ptr, i64 }
%"class.std::locale" = type { ptr }
%"class.std::basic_ostream" = type { ptr, %"class.std::basic_ios" }
%class.V3LexerBase = type <{ %class.FlexLexer.base, i32, i32, [4 x i8], ptr, %"class.std::basic_istream", %"class.std::basic_ostream", i8, [3 x i8], i32, ptr, i32, i32, i32, [4 x i8], i64, i64, ptr, i32, [4 x i8], ptr, ptr, ptr, ptr, ptr, i32, i32, i32, i32, i32, i32, i32, [4 x i8] }>
%class.FlexLexer.base = type <{ ptr, ptr, i32, i32, i32 }>
%class.FlexLexer = type <{ ptr, ptr, i32, i32, i32, [4 x i8] }>
%struct.yy_buffer_state = type { ptr, ptr, ptr, i32, i32, i32, i32, i32, i32, i32, i32, i32 }

; Function Attrs: mustprogress uwtable
define dso_local void @_ZN11V3LexerBase20yy_load_buffer_stateEv(ptr noundef nonnull align 8 dereferenceable(732) %0) #5 align 2 {
  %2 = alloca ptr, align 8
  store ptr %0, ptr %2, align 8
  %3 = load ptr, ptr %2, align 8
  %4 = getelementptr inbounds %class.V3LexerBase, ptr %3, i32 0, i32 17
  %5 = load ptr, ptr %4, align 8
  %6 = getelementptr inbounds %class.V3LexerBase, ptr %3, i32 0, i32 15
  %7 = load i64, ptr %6, align 8
  %8 = getelementptr inbounds ptr, ptr %5, i64 %7
  %9 = load ptr, ptr %8, align 8
  %10 = getelementptr inbounds %struct.yy_buffer_state, ptr %9, i32 0, i32 4
  %11 = load i32, ptr %10, align 4
  %12 = getelementptr inbounds %class.V3LexerBase, ptr %3, i32 0, i32 9
  store i32 %11, ptr %12, align 4
  %13 = getelementptr inbounds %class.V3LexerBase, ptr %3, i32 0, i32 17
  %14 = load ptr, ptr %13, align 8
  %15 = getelementptr inbounds %class.V3LexerBase, ptr %3, i32 0, i32 15
  %16 = load i64, ptr %15, align 8
  %17 = getelementptr inbounds ptr, ptr %14, i64 %16
  %18 = load ptr, ptr %17, align 8
  %19 = getelementptr inbounds %struct.yy_buffer_state, ptr %18, i32 0, i32 2
  %20 = load ptr, ptr %19, align 8
  %21 = getelementptr inbounds %class.V3LexerBase, ptr %3, i32 0, i32 10
  store ptr %20, ptr %21, align 8
  %22 = getelementptr inbounds %class.FlexLexer, ptr %3, i32 0, i32 1
  store ptr %20, ptr %22, align 8
  %23 = getelementptr inbounds %class.V3LexerBase, ptr %3, i32 0, i32 5
  %24 = load ptr, ptr %23, align 8
  %25 = getelementptr i8, ptr %24, i64 -24
  %26 = load i64, ptr %25, align 8
  %27 = getelementptr inbounds i8, ptr %23, i64 %26
  %28 = getelementptr inbounds %class.V3LexerBase, ptr %3, i32 0, i32 17
  %29 = load ptr, ptr %28, align 8
  %30 = getelementptr inbounds %class.V3LexerBase, ptr %3, i32 0, i32 15
  %31 = load i64, ptr %30, align 8
  %32 = getelementptr inbounds ptr, ptr %29, i64 %31
  %33 = load ptr, ptr %32, align 8
  %34 = getelementptr inbounds %struct.yy_buffer_state, ptr %33, i32 0, i32 0
  %35 = load ptr, ptr %34, align 8
  %36 = call noundef ptr @_ZNSt9basic_iosIcSt11char_traitsIcEE5rdbufEPSt15basic_streambufIcS1_E(ptr noundef nonnull align 8 dereferenceable(264) %27, ptr noundef %35)
  %37 = getelementptr inbounds %class.V3LexerBase, ptr %3, i32 0, i32 10
  %38 = load ptr, ptr %37, align 8
  %39 = load i8, ptr %38, align 1
  %40 = getelementptr inbounds %class.V3LexerBase, ptr %3, i32 0, i32 7
  store i8 %39, ptr %40, align 8
  ret void
}

; Function Attrs: mustprogress uwtable
define dso_local void @_ZN11V3LexerBase15yy_flush_bufferEP15yy_buffer_state(ptr noundef nonnull align 8 dereferenceable(732) %0, ptr noundef %1) #5 align 2 {
  %3 = alloca ptr, align 8
  %4 = alloca ptr, align 8
  store ptr %0, ptr %3, align 8
  store ptr %1, ptr %4, align 8
  %5 = load ptr, ptr %3, align 8
  %6 = load ptr, ptr %4, align 8
  %7 = icmp ne ptr %6, null
  br i1 %7, label %9, label %8

8:                                                ; preds = %2
  br label %46

9:                                                ; preds = %2
  %10 = load ptr, ptr %4, align 8
  %11 = getelementptr inbounds %struct.yy_buffer_state, ptr %10, i32 0, i32 4
  store i32 0, ptr %11, align 4
  %12 = load ptr, ptr %4, align 8
  %13 = getelementptr inbounds %struct.yy_buffer_state, ptr %12, i32 0, i32 1
  %14 = load ptr, ptr %13, align 8
  %15 = getelementptr inbounds i8, ptr %14, i64 0
  store i8 0, ptr %15, align 1
  %16 = load ptr, ptr %4, align 8
  %17 = getelementptr inbounds %struct.yy_buffer_state, ptr %16, i32 0, i32 1
  %18 = load ptr, ptr %17, align 8
  %19 = getelementptr inbounds i8, ptr %18, i64 1
  store i8 0, ptr %19, align 1
  %20 = load ptr, ptr %4, align 8
  %21 = getelementptr inbounds %struct.yy_buffer_state, ptr %20, i32 0, i32 1
  %22 = load ptr, ptr %21, align 8
  %23 = getelementptr inbounds i8, ptr %22, i64 0
  %24 = load ptr, ptr %4, align 8
  %25 = getelementptr inbounds %struct.yy_buffer_state, ptr %24, i32 0, i32 2
  store ptr %23, ptr %25, align 8
  %26 = load ptr, ptr %4, align 8
  %27 = getelementptr inbounds %struct.yy_buffer_state, ptr %26, i32 0, i32 7
  store i32 1, ptr %27, align 8
  %28 = load ptr, ptr %4, align 8
  %29 = getelementptr inbounds %struct.yy_buffer_state, ptr %28, i32 0, i32 11
  store i32 0, ptr %29, align 8
  %30 = load ptr, ptr %4, align 8
  %31 = getelementptr inbounds %class.V3LexerBase, ptr %5, i32 0, i32 17
  %32 = load ptr, ptr %31, align 8
  %33 = icmp ne ptr %32, null
  br i1 %33, label %34, label %41

34:                                               ; preds = %9
  %35 = getelementptr inbounds %class.V3LexerBase, ptr %5, i32 0, i32 17
  %36 = load ptr, ptr %35, align 8
  %37 = getelementptr inbounds %class.V3LexerBase, ptr %5, i32 0, i32 15
  %38 = load i64, ptr %37, align 8
  %39 = getelementptr inbounds ptr, ptr %36, i64 %38
  %40 = load ptr, ptr %39, align 8
  br label %42

41:                                               ; preds = %9
  br label %42

42:                                               ; preds = %41, %34
  %43 = phi ptr [ %40, %34 ], [ null, %41 ]
  %44 = icmp eq ptr %30, %43
  br i1 %44, label %45, label %46

45:                                               ; preds = %42
  call void @_ZN11V3LexerBase20yy_load_buffer_stateEv(ptr noundef nonnull align 8 dereferenceable(732) %5)
  br label %46

46:                                               ; preds = %45, %42, %8
  ret void
}

; Function Attrs: mustprogress uwtable
define dso_local void @_ZN11V3LexerBase14yy_init_bufferEP15yy_buffer_stateRSi(ptr noundef nonnull align 8 dereferenceable(732) %0, ptr noundef %1, ptr noundef nonnull align 8 dereferenceable(16) %2) #5 align 2 {
  %4 = alloca ptr, align 8
  %5 = alloca ptr, align 8
  %6 = alloca ptr, align 8
  %7 = alloca i32, align 4
  store ptr %0, ptr %4, align 8
  store ptr %1, ptr %5, align 8
  store ptr %2, ptr %6, align 8
  %8 = load ptr, ptr %4, align 8
  %9 = call ptr @__errno_location() #26
  %10 = load i32, ptr %9, align 4
  store i32 %10, ptr %7, align 4
  %11 = load ptr, ptr %5, align 8
  call void @_ZN11V3LexerBase15yy_flush_bufferEP15yy_buffer_state(ptr noundef nonnull align 8 dereferenceable(732) %8, ptr noundef %11)
  %12 = load ptr, ptr %6, align 8
  %13 = load ptr, ptr %12, align 8
  %14 = getelementptr i8, ptr %13, i64 -24
  %15 = load i64, ptr %14, align 8
  %16 = getelementptr inbounds i8, ptr %12, i64 %15
  %17 = call noundef ptr @_ZNKSt9basic_iosIcSt11char_traitsIcEE5rdbufEv(ptr noundef nonnull align 8 dereferenceable(264) %16)
  %18 = load ptr, ptr %5, align 8
  %19 = getelementptr inbounds %struct.yy_buffer_state, ptr %18, i32 0, i32 0
  store ptr %17, ptr %19, align 8
  %20 = load ptr, ptr %5, align 8
  %21 = getelementptr inbounds %struct.yy_buffer_state, ptr %20, i32 0, i32 10
  store i32 1, ptr %21, align 4
  %22 = load ptr, ptr %5, align 8
  %23 = getelementptr inbounds %class.V3LexerBase, ptr %8, i32 0, i32 17
  %24 = load ptr, ptr %23, align 8
  %25 = icmp ne ptr %24, null
  br i1 %25, label %26, label %33

26:                                               ; preds = %3
  %27 = getelementptr inbounds %class.V3LexerBase, ptr %8, i32 0, i32 17
  %28 = load ptr, ptr %27, align 8
  %29 = getelementptr inbounds %class.V3LexerBase, ptr %8, i32 0, i32 15
  %30 = load i64, ptr %29, align 8
  %31 = getelementptr inbounds ptr, ptr %28, i64 %30
  %32 = load ptr, ptr %31, align 8
  br label %34

33:                                               ; preds = %3
  br label %34

34:                                               ; preds = %33, %26
  %35 = phi ptr [ %32, %26 ], [ null, %33 ]
  %36 = icmp ne ptr %22, %35
  br i1 %36, label %37, label %42

37:                                               ; preds = %34
  %38 = load ptr, ptr %5, align 8
  %39 = getelementptr inbounds %struct.yy_buffer_state, ptr %38, i32 0, i32 8
  store i32 1, ptr %39, align 4
  %40 = load ptr, ptr %5, align 8
  %41 = getelementptr inbounds %struct.yy_buffer_state, ptr %40, i32 0, i32 9
  store i32 0, ptr %41, align 8
  br label %42

42:                                               ; preds = %37, %34
  %43 = load ptr, ptr %5, align 8
  %44 = getelementptr inbounds %struct.yy_buffer_state, ptr %43, i32 0, i32 6
  store i32 0, ptr %44, align 4
  %45 = load i32, ptr %7, align 4
  %46 = call ptr @__errno_location() #26
  store i32 %45, ptr %46, align 4
  ret void
}