; Function Attrs: mustprogress uwtable
define dso_local void @_ZN11V3LexerBase14yy_init_bufferEP15yy_buffer_stateRSi(ptr noundef nonnull align 8 dereferenceable(732) %0, ptr noundef %1, ptr noundef nonnull align 8 dereferenceable(16) %2) local_unnamed_addr #4 align 2 {
  %4 = tail call ptr @__errno_location() #38
  %5 = load i32, ptr %4, align 4
  %.not.i = icmp eq ptr %1, null
  br i1 %.not.i, label %_ZN11V3LexerBase15yy_flush_bufferEP15yy_buffer_state.exit, label %6

6:                                                ; preds = %3
  %7 = getelementptr inbounds i8, ptr %1, i64 28
  store i32 0, ptr %7, align 4
  %8 = getelementptr inbounds i8, ptr %1, i64 8
  %9 = load ptr, ptr %8, align 8
  store i8 0, ptr %9, align 1
  %10 = load ptr, ptr %8, align 8
  %11 = getelementptr inbounds i8, ptr %10, i64 1
  store i8 0, ptr %11, align 1
  %12 = load ptr, ptr %8, align 8
  %13 = getelementptr inbounds i8, ptr %1, i64 16
  store ptr %12, ptr %13, align 8
  %14 = getelementptr inbounds i8, ptr %1, i64 40
  store i32 1, ptr %14, align 8
  %15 = getelementptr inbounds i8, ptr %1, i64 56
  store i32 0, ptr %15, align 8
  %16 = getelementptr inbounds i8, ptr %0, i64 648
  %17 = load ptr, ptr %16, align 8
  %.not11.i = icmp eq ptr %17, null
  br i1 %.not11.i, label %23, label %18

18:                                               ; preds = %6
  %19 = getelementptr inbounds i8, ptr %0, i64 632
  %20 = load i64, ptr %19, align 8
  %21 = getelementptr inbounds ptr, ptr %17, i64 %20
  %22 = load ptr, ptr %21, align 8
  br label %23

23:                                               ; preds = %18, %6
  %24 = phi ptr [ %22, %18 ], [ null, %6 ]
  %25 = icmp eq ptr %24, %1
  br i1 %25, label %26, label %_ZN11V3LexerBase15yy_flush_bufferEP15yy_buffer_state.exit

26:                                               ; preds = %23
  %27 = getelementptr inbounds i8, ptr %0, i64 632
  %28 = load i64, ptr %27, align 8
  %29 = getelementptr inbounds ptr, ptr %17, i64 %28
  %30 = load ptr, ptr %29, align 8
  %31 = getelementptr inbounds i8, ptr %30, i64 28
  %32 = load i32, ptr %31, align 4
  %33 = getelementptr inbounds i8, ptr %0, i64 604
  store i32 %32, ptr %33, align 4
  %34 = load ptr, ptr %29, align 8
  %35 = getelementptr inbounds i8, ptr %34, i64 16
  %36 = load ptr, ptr %35, align 8
  %37 = getelementptr inbounds i8, ptr %0, i64 608
  store ptr %36, ptr %37, align 8
  %38 = getelementptr inbounds i8, ptr %0, i64 8
  store ptr %36, ptr %38, align 8
  %39 = getelementptr inbounds i8, ptr %0, i64 48
  %40 = load ptr, ptr %39, align 8
  %41 = getelementptr i8, ptr %40, i64 -24
  %42 = load i64, ptr %41, align 8
  %43 = getelementptr inbounds i8, ptr %39, i64 %42
  %44 = load ptr, ptr %29, align 8
  %45 = load ptr, ptr %44, align 8
  %46 = tail call noundef ptr @_ZNSt9basic_iosIcSt11char_traitsIcEE5rdbufEPSt15basic_streambufIcS1_E(ptr noundef nonnull align 8 dereferenceable(264) %43, ptr noundef %45)
  %47 = load ptr, ptr %37, align 8
  %48 = load i8, ptr %47, align 1
  %49 = getelementptr inbounds i8, ptr %0, i64 600
  store i8 %48, ptr %49, align 8
  br label %_ZN11V3LexerBase15yy_flush_bufferEP15yy_buffer_state.exit

_ZN11V3LexerBase15yy_flush_bufferEP15yy_buffer_state.exit: ; preds = %3, %23, %26
  %50 = load ptr, ptr %2, align 8
  %51 = getelementptr i8, ptr %50, i64 -24
  %52 = load i64, ptr %51, align 8
  %53 = getelementptr inbounds i8, ptr %2, i64 %52
  %54 = tail call noundef ptr @_ZNKSt9basic_iosIcSt11char_traitsIcEE5rdbufEv(ptr noundef nonnull align 8 dereferenceable(264) %53)
  store ptr %54, ptr %1, align 8
  %55 = getelementptr inbounds i8, ptr %1, i64 52
  store i32 1, ptr %55, align 4
  %56 = getelementptr inbounds i8, ptr %0, i64 648
  %57 = load ptr, ptr %56, align 8
  %.not = icmp eq ptr %57, null
  br i1 %.not, label %63, label %58

58:                                               ; preds = %_ZN11V3LexerBase15yy_flush_bufferEP15yy_buffer_state.exit
  %59 = getelementptr inbounds i8, ptr %0, i64 632
  %60 = load i64, ptr %59, align 8
  %61 = getelementptr inbounds ptr, ptr %57, i64 %60
  %62 = load ptr, ptr %61, align 8
  br label %63

63:                                               ; preds = %_ZN11V3LexerBase15yy_flush_bufferEP15yy_buffer_state.exit, %58
  %64 = phi ptr [ %62, %58 ], [ null, %_ZN11V3LexerBase15yy_flush_bufferEP15yy_buffer_state.exit ]
  %.not10 = icmp eq ptr %64, %1
  br i1 %.not10, label %68, label %65

65:                                               ; preds = %63
  %66 = getelementptr inbounds i8, ptr %1, i64 44
  store i32 1, ptr %66, align 4
  %67 = getelementptr inbounds i8, ptr %1, i64 48
  store i32 0, ptr %67, align 8
  br label %68

68:                                               ; preds = %65, %63
  %69 = getelementptr inbounds i8, ptr %1, i64 36
  store i32 0, ptr %69, align 4
  store i32 %5, ptr %4, align 4
  ret void
}